(lp1
(lp2
(I115
I251
I211
tp3
a(I68
I229
I231
tp4
a(I89
I210
I254
tp5
a(I74
I143
I231
tp6
a(I92
I122
I255
tp7
aa(lp8
(I147
I129
I255
tp9
a(I184
I184
I255
tp10
a(I248
I247
I255
tp11
a(I255
I238
I221
tp12
a(I255
I216
I190
tp13
aa(lp14
(I1
I48
I8
tp15
a(I35
I75
I146
tp16
a(I128
I157
I225
tp17
a(I177
I166
I240
tp18
a(I231
I193
I243
tp19
aa(lp20
(I49
I54
I40
tp21
a(I89
I83
I88
tp22
a(I133
I127
I116
tp23
a(I164
I172
I150
tp24
a(I202
I223
I158
tp25
aa(lp26
(I85
I86
I140
tp27
a(I150
I171
I167
tp28
a(I169
I213
I157
tp29
a(I225
I169
I163
tp30
a(I248
I97
I176
tp31
aa(lp32
(I155
I29
I32
tp33
a(I61
I43
I61
tp34
a(I99
I93
I92
tp35
a(I203
I239
I182
tp36
a(I208
I255
I206
tp37
aa(lp38
(I83
I55
I71
tp39
a(I95
I80
I107
tp40
a(I106
I107
I131
tp41
a(I118
I148
I159
tp42
a(I134
I187
I189
tp43
aa(lp44
(I244
I91
I105
tp45
a(I246
I232
I234
tp46
a(I34
I24
I28
tp47
a(I90
I0
I1
tp48
a(I241
I48
I48
tp49
aa(lp50
(I241
I244
I241
tp51
a(I127
I229
I203
tp52
a(I146
I214
I216
tp53
a(I142
I111
I184
tp54
a(I69
I86
I70
tp55
aa(lp56
(I69
I74
I222
tp57
a(I27
I31
I59
tp58
a(I177
I74
I237
tp59
a(I200
I116
I217
tp60
a(I225
I187
I201
tp61
aa(lp62
(I66
I75
I84
tp63
a(I179
I141
I151
tp64
a(I213
I172
I169
tp65
a(I235
I207
I178
tp66
a(I197
I186
I175
tp67
aa(lp68
(I188
I231
I253
tp69
a(I196
I146
I177
tp70
a(I175
I59
I110
tp71
a(I66
I70
I81
tp72
a(I33
I250
I144
tp73
aa(lp74
(I31
I32
I65
tp75
a(I75
I63
I114
tp76
a(I65
I123
I90
tp77
a(I208
I206
I186
tp78
a(I233
I210
I192
tp79
aa(lp80
(I160
I221
I255
tp81
a(I117
I142
I205
tp82
a(I193
I206
I254
tp83
a(I113
I137
I255
tp84
a(I98
I76
I171
tp85
aa(lp86
(I244
I219
I216
tp87
a(I190
I168
I167
tp88
a(I192
I152
I145
tp89
a(I119
I81
I68
tp90
a(I42
I8
I0
tp91
aa(lp92
(I248
I220
I202
tp93
a(I153
I141
I127
tp94
a(I166
I142
I134
tp95
a(I137
I113
I102
tp96
a(I161
I141
I133
tp97
aa(lp98
(I11
I60
I73
tp99
a(I115
I25
I99
tp100
a(I255
I253
I253
tp101
a(I203
I210
I208
tp102
a(I240
I225
I0
tp103
aa(lp104
(I0
I39
I43
tp105
a(I224
I255
I79
tp106
a(I255
I102
I99
tp107
a(I255
I46
I204
tp108
a(I165
I16
I128
tp109
aa(lp110
(I158
I228
I147
tp111
a(I218
I247
I220
tp112
a(I171
I200
I192
tp113
a(I112
I86
I109
tp114
a(I66
I39
I59
tp115
aa(lp116
(I52
I215
I226
tp117
a(I64
I98
I187
tp118
a(I149
I2
I43
tp119
a(I219
I216
I241
tp120
a(I115
I137
I186
tp121
aa(lp122
(I20
I17
I21
tp123
a(I76
I43
I54
tp124
a(I141
I99
I70
tp125
a(I221
I244
I91
tp126
a(I198
I249
I31
tp127
aa(lp128
(I220
I227
I238
tp129
a(I69
I87
I7
tp130
a(I113
I109
I0
tp131
a(I163
I110
I0
tp132
a(I35
I38
I42
tp133
aa(lp134
(I5
I5
I23
tp135
a(I207
I92
I54
tp136
a(I239
I200
I139
tp137
a(I244
I227
I178
tp138
a(I211
I213
I215
tp139
aa(lp140
(I224
I224
I226
tp141
a(I129
I210
I199
tp142
a(I181
I186
I208
tp143
a(I115
I137
I174
tp144
a(I65
I103
I136
tp145
aa(lp146
(I210
I182
I225
tp147
a(I187
I130
I154
tp148
a(I131
I89
I76
tp149
a(I83
I54
I49
tp150
a(I42
I45
I33
tp151
aa(lp152
(I28
I119
I195
tp153
a(I57
I169
I219
tp154
a(I64
I188
I216
tp155
a(I243
I146
I55
tp156
a(I214
I50
I48
tp157
aa(lp158
(I200
I233
I152
tp159
a(I250
I157
I108
tp160
a(I127
I138
I131
tp161
a(I62
I42
I96
tp162
a(I79
I2
I76
tp163
aa(lp164
(I77
I157
I224
tp165
a(I225
I85
I84
tp166
a(I225
I188
I41
tp167
a(I59
I178
I115
tp168
a(I119
I104
I174
tp169
aa(lp170
(I185
I216
I194
tp171
a(I154
I194
I201
tp172
a(I138
I161
I177
tp173
a(I74
I80
I67
tp174
a(I255
I203
I71
tp175
aa(lp176
(I207
I204
I214
tp177
a(I187
I194
I226
tp178
a(I183
I181
I228
tp179
a(I132
I121
I121
tp180
a(I50
I46
I24
tp181
aa(lp182
(I130
I138
I149
tp183
a(I206
I234
I247
tp184
a(I204
I215
I228
tp185
a(I213
I201
I223
tp186
a(I220
I184
I203
tp187
aa(lp188
(I86
I203
I249
tp189
a(I127
I190
I235
tp190
a(I175
I190
I209
tp191
a(I234
I197
I216
tp192
a(I219
I216
I240
tp193
aa(lp194
(I41
I63
I20
tp195
a(I56
I108
I11
tp196
a(I56
I167
I0
tp197
a(I49
I216
I67
tp198
a(I62
I255
I139
tp199
aa(lp200
(I93
I253
I203
tp201
a(I144
I215
I255
tp202
a(I201
I249
I255
tp203
a(I191
I208
I224
tp204
a(I184
I179
I190
tp205
aa(lp206
(I179
I0
I27
tp207
a(I38
I38
I38
tp208
a(I37
I92
I153
tp209
a(I126
I163
I204
tp210
a(I204
I173
I143
tp211
aa(lp212
(I141
I170
I145
tp213
a(I120
I132
I117
tp214
a(I94
I93
I92
tp215
a(I69
I54
I67
tp216
a(I40
I17
I43
tp217
aa(lp218
(I2
I1
I10
tp219
a(I4
I5
I46
tp220
a(I20
I1
I82
tp221
a(I34
I0
I124
tp222
a(I13
I0
I164
tp223
aa(lp224
(I84
I73
I75
tp225
a(I126
I130
I135
tp226
a(I157
I163
I154
tp227
a(I185
I131
I137
tp228
a(I219
I41
I85
tp229
aa(lp230
(I99
I71
I77
tp231
a(I170
I118
I124
tp232
a(I214
I161
I132
tp233
a(I255
I166
I134
tp234
a(I254
I193
I150
tp235
aa(lp236
(I54
I48
I32
tp237
a(I96
I92
I78
tp238
a(I164
I153
I102
tp239
a(I199
I199
I166
tp240
a(I234
I255
I218
tp241
aa(lp242
(I183
I240
I173
tp243
a(I210
I255
I150
tp244
a(I237
I255
I122
tp245
a(I232
I211
I63
tp246
a(I209
I123
I15
tp247
aa(lp248
(I211
I12
I123
tp249
a(I255
I227
I220
tp250
a(I219
I180
I173
tp251
a(I162
I173
I145
tp252
a(I58
I45
I50
tp253
aa(lp254
(I216
I164
I127
tp255
a(I239
I131
I84
tp256
a(I238
I75
I106
tp257
a(I223
I59
I87
tp258
a(I15
I113
I115
tp259
aa(lp260
(I10
I36
I99
tp261
a(I239
I241
I243
tp262
a(I219
I211
I216
tp263
a(I216
I180
I160
tp264
a(I215
I122
I97
tp265
aa(lp266
(I207
I255
I179
tp267
a(I173
I226
I93
tp268
a(I252
I236
I82
tp269
a(I59
I112
I128
tp270
a(I58
I87
I67
tp271
aa.